target datalayout = "e-m:e-p270:32:32-p271:32:32-p272:64:64-i64:64-i128:128-f80:128-n8:16:32:64-S128"
target triple = "x86_64-pc-linux-gnu"

%struct.expert_field = type { i32, i32 }
%struct._address = type { i32, i32, ptr, ptr }
%struct.e_in6_addr = type { [16 x i8] }
%struct._packet_info = type { ptr, ptr, i32, i32, %struct.nstime_t, %struct.nstime_t, %struct.nstime_t, i8, ptr, ptr, ptr, ptr, %struct._address, %struct._address, %struct._address, %struct._address, %struct._address, %struct._address, i32, ptr, i8, [3 x i8], %struct.anon, i32, i32, i32, i32, ptr, i8, ptr, ptr, i16, i16, i32, i32, i16, i32, i32, ptr, ptr, ptr, i8, i8, i16, i16, i16, i32, i16, i16, ptr, ptr, ptr, ptr, ptr, i32, i32 }
%struct.nstime_t = type { i64, i32 }
%struct.anon = type { i8, [3 x i8] }
%struct._frame_data = type <{ i32, i32, i32, i32, i32, [4 x i8], i64, ptr, ptr, ptr, i8, i16, [5 x i8], %struct.nstime_t, %struct.nstime_t, i32, i32 }>

@hf_gsm_a_bssmap_aoip_trans_ipv4 = internal global i32 0, align 4
@hf_gsm_a_bssmap_aoip_trans_ipv6 = internal global i32 0, align 4
@hf_gsm_a_bssmap_aoip_trans_port = internal global i32 0, align 4
@ei_gsm_a_bssmap_bogus_length = internal global %struct.expert_field zeroinitializer, align 4
@.str.737 = private unnamed_addr constant [16 x i8] c"Bogus length %u\00", align 1
@.str.738 = private unnamed_addr constant [8 x i8] c"BSS MAP\00", align 1

; Function Attrs: null_pointer_is_valid sspstrong uwtable
define internal zeroext i16 @be_aoip_trans_lay_add(ptr noundef %0, ptr noundef %1, ptr noundef %2, i32 noundef %3, i32 noundef %4, ptr noundef %5, i32 noundef %6) #1 {
  %8 = alloca i16, align 2
  %9 = alloca ptr, align 8
  %10 = alloca ptr, align 8
  %11 = alloca ptr, align 8
  %12 = alloca i32, align 4
  %13 = alloca i32, align 4
  %14 = alloca ptr, align 8
  %15 = alloca i32, align 4
  %16 = alloca i32, align 4
  %17 = alloca i8, align 1
  %18 = alloca i32, align 4
  %19 = alloca i16, align 2
  %20 = alloca %struct._address, align 8
  %21 = alloca %struct.e_in6_addr, align 1
  %22 = alloca i32, align 4
  store ptr %0, ptr %9, align 8
  store ptr %1, ptr %10, align 8
  store ptr %2, ptr %11, align 8
  store i32 %3, ptr %12, align 4
  store i32 %4, ptr %13, align 4
  store ptr %5, ptr %14, align 8
  store i32 %6, ptr %15, align 4
  call void @llvm.lifetime.start.p0(i64 4, ptr %16) #5
  call void @llvm.lifetime.start.p0(i64 1, ptr %17) #5
  call void @llvm.lifetime.start.p0(i64 4, ptr %18) #5
  call void @llvm.lifetime.start.p0(i64 2, ptr %19) #5
  call void @llvm.lifetime.start.p0(i64 24, ptr %20) #5
  call void @llvm.lifetime.start.p0(i64 16, ptr %21) #5
  %23 = load i32, ptr %12, align 4
  store i32 %23, ptr %16, align 4
  %24 = load i32, ptr %13, align 4
  switch i32 %24, label %46 [
    i32 6, label %25
    i32 18, label %36
  ]

25:                                               ; preds = %7
  store i8 1, ptr %17, align 1
  %26 = load ptr, ptr %10, align 8
  %27 = load i32, ptr @hf_gsm_a_bssmap_aoip_trans_ipv4, align 4
  %28 = load ptr, ptr %9, align 8
  %29 = load i32, ptr %16, align 4
  %30 = call ptr @proto_tree_add_item(ptr noundef %26, i32 noundef %27, ptr noundef %28, i32 noundef %29, i32 noundef 4, i32 noundef 0)
  %31 = load ptr, ptr %9, align 8
  %32 = load i32, ptr %16, align 4
  %33 = call i32 @tvb_get_ipv4(ptr noundef %31, i32 noundef %32)
  store i32 %33, ptr %18, align 4
  %34 = load i32, ptr %16, align 4
  %35 = add i32 %34, 4
  store i32 %35, ptr %16, align 4
  br label %56

36:                                               ; preds = %7
  store i8 2, ptr %17, align 1
  %37 = load ptr, ptr %10, align 8
  %38 = load i32, ptr @hf_gsm_a_bssmap_aoip_trans_ipv6, align 4
  %39 = load ptr, ptr %9, align 8
  %40 = load i32, ptr %16, align 4
  %41 = call ptr @proto_tree_add_item(ptr noundef %37, i32 noundef %38, ptr noundef %39, i32 noundef %40, i32 noundef 16, i32 noundef 0)
  %42 = load ptr, ptr %9, align 8
  %43 = load i32, ptr %16, align 4
  call void @tvb_get_ipv6(ptr noundef %42, i32 noundef %43, ptr noundef %21)
  %44 = load i32, ptr %16, align 4
  %45 = add i32 %44, 16
  store i32 %45, ptr %16, align 4
  br label %56

46:                                               ; preds = %7
  %47 = load ptr, ptr %10, align 8
  %48 = load ptr, ptr %11, align 8
  %49 = load ptr, ptr %9, align 8
  %50 = load i32, ptr %16, align 4
  %51 = load i32, ptr %13, align 4
  %52 = load i32, ptr %13, align 4
  %53 = call ptr (ptr, ptr, ptr, ptr, i32, i32, ptr, ...) @proto_tree_add_expert_format(ptr noundef %47, ptr noundef %48, ptr noundef @ei_gsm_a_bssmap_bogus_length, ptr noundef %49, i32 noundef %50, i32 noundef %51, ptr noundef @.str.737, i32 noundef %52)
  %54 = load i32, ptr %13, align 4
  %55 = trunc i32 %54 to i16
  store i16 %55, ptr %8, align 2
  store i32 1, ptr %22, align 4
  br label %110

56:                                               ; preds = %36, %25
  %57 = load ptr, ptr %10, align 8
  %58 = load i32, ptr @hf_gsm_a_bssmap_aoip_trans_port, align 4
  %59 = load ptr, ptr %9, align 8
  %60 = load i32, ptr %16, align 4
  %61 = call ptr @proto_tree_add_item(ptr noundef %57, i32 noundef %58, ptr noundef %59, i32 noundef %60, i32 noundef 2, i32 noundef 0)
  %62 = load ptr, ptr %9, align 8
  %63 = load i32, ptr %16, align 4
  %64 = call zeroext i16 @tvb_get_ntohs(ptr noundef %62, i32 noundef %63)
  store i16 %64, ptr %19, align 2
  %65 = load i32, ptr %16, align 4
  %66 = add i32 %65, 2
  store i32 %66, ptr %16, align 4
  %67 = load i8, ptr %17, align 1
  %68 = zext i8 %67 to i32
  switch i32 %68, label %77 [
    i32 1, label %69
    i32 2, label %73
  ]

69:                                               ; preds = %56
  %70 = getelementptr inbounds nuw %struct._address, ptr %20, i32 0, i32 0
  store i32 2, ptr %70, align 8
  %71 = getelementptr inbounds nuw %struct._address, ptr %20, i32 0, i32 1
  store i32 4, ptr %71, align 4
  %72 = getelementptr inbounds nuw %struct._address, ptr %20, i32 0, i32 2
  store ptr %18, ptr %72, align 8
  br label %77

73:                                               ; preds = %56
  %74 = getelementptr inbounds nuw %struct._address, ptr %20, i32 0, i32 0
  store i32 3, ptr %74, align 8
  %75 = getelementptr inbounds nuw %struct._address, ptr %20, i32 0, i32 1
  store i32 16, ptr %75, align 4
  %76 = getelementptr inbounds nuw %struct._address, ptr %20, i32 0, i32 2
  store ptr %21, ptr %76, align 8
  br label %77

77:                                               ; preds = %56, %73, %69
  %78 = load ptr, ptr %11, align 8
  %79 = getelementptr inbounds nuw %struct._packet_info, ptr %78, i32 0, i32 8
  %80 = load ptr, ptr %79, align 8
  %81 = getelementptr inbounds nuw %struct._frame_data, ptr %80, i32 0, i32 11
  %82 = load i16, ptr %81, align 1
  %83 = lshr i16 %82, 3
  %84 = and i16 %83, 1
  %85 = zext i16 %84 to i32
  %86 = icmp ne i32 %85, 0
  br i1 %86, label %105, label %87

87:                                               ; preds = %77
  %88 = load i16, ptr %19, align 2
  %89 = zext i16 %88 to i32
  %90 = icmp ne i32 %89, 0
  br i1 %90, label %91, label %105

91:                                               ; preds = %87
  %92 = load ptr, ptr %11, align 8
  %93 = load i16, ptr %19, align 2
  %94 = zext i16 %93 to i32
  %95 = load ptr, ptr %11, align 8
  %96 = getelementptr inbounds nuw %struct._packet_info, ptr %95, i32 0, i32 3
  %97 = load i32, ptr %96, align 4
  call void @rtp_add_address(ptr noundef %92, i32 noundef 3, ptr noundef %20, i32 noundef %94, i32 noundef 0, ptr noundef @.str.738, i32 noundef %97, i32 noundef 0, ptr noundef null)
  %98 = load ptr, ptr %11, align 8
  %99 = load i16, ptr %19, align 2
  %100 = zext i16 %99 to i32
  %101 = add i32 %100, 1
  %102 = load ptr, ptr %11, align 8
  %103 = getelementptr inbounds nuw %struct._packet_info, ptr %102, i32 0, i32 3
  %104 = load i32, ptr %103, align 4
  call void @rtcp_add_address(ptr noundef %98, ptr noundef %20, i32 noundef %101, i32 noundef 0, ptr noundef @.str.738, i32 noundef %104)
  br label %105

105:                                              ; preds = %91, %87, %77
  %106 = load i32, ptr %16, align 4
  %107 = load i32, ptr %12, align 4
  %108 = sub i32 %106, %107
  %109 = trunc i32 %108 to i16
  store i16 %109, ptr %8, align 2
  store i32 1, ptr %22, align 4
  br label %110

110:                                              ; preds = %105, %46
  call void @llvm.lifetime.end.p0(i64 16, ptr %21) #5
  call void @llvm.lifetime.end.p0(i64 24, ptr %20) #5
  call void @llvm.lifetime.end.p0(i64 2, ptr %19) #5
  call void @llvm.lifetime.end.p0(i64 4, ptr %18) #5
  call void @llvm.lifetime.end.p0(i64 1, ptr %17) #5
  call void @llvm.lifetime.end.p0(i64 4, ptr %16) #5
  %111 = load i16, ptr %8, align 2
  ret i16 %111
}