; Function Attrs: null_pointer_is_valid sspstrong uwtable
define internal zeroext i16 @be_aoip_trans_lay_add(ptr noundef %0, ptr noundef %1, ptr noundef %2, i32 noundef %3, i32 noundef %4, ptr readnone captures(none) %5, i32 %6) #1 {
  %8 = alloca i32, align 4
  %9 = alloca %struct._address, align 8
  %10 = alloca %struct.e_in6_addr, align 1
  call void @llvm.lifetime.start.p0(i64 4, ptr nonnull %8) #4
  call void @llvm.lifetime.start.p0(i64 24, ptr nonnull %9) #4
  call void @llvm.lifetime.start.p0(i64 16, ptr nonnull %10) #4
  switch i32 %4, label %18 [
    i32 6, label %11
    i32 18, label %15
  ]

11:                                               ; preds = %7
  %12 = load i32, ptr @hf_gsm_a_bssmap_aoip_trans_ipv4, align 4
  %13 = tail call ptr @proto_tree_add_item(ptr noundef %1, i32 noundef %12, ptr noundef %0, i32 noundef %3, i32 noundef 4, i32 noundef 0)
  %14 = tail call i32 @tvb_get_ipv4(ptr noundef %0, i32 noundef %3)
  store i32 %14, ptr %8, align 4
  br label %20

15:                                               ; preds = %7
  %16 = load i32, ptr @hf_gsm_a_bssmap_aoip_trans_ipv6, align 4
  %17 = tail call ptr @proto_tree_add_item(ptr noundef %1, i32 noundef %16, ptr noundef %0, i32 noundef %3, i32 noundef 16, i32 noundef 0)
  call void @tvb_get_ipv6(ptr noundef %0, i32 noundef %3, ptr noundef nonnull %10)
  br label %20

18:                                               ; preds = %7
  %19 = tail call ptr (ptr, ptr, ptr, ptr, i32, i32, ptr, ...) @proto_tree_add_expert_format(ptr noundef %1, ptr noundef %2, ptr noundef nonnull @ei_gsm_a_bssmap_bogus_length, ptr noundef %0, i32 noundef %3, i32 noundef %4, ptr noundef nonnull @.str.737, i32 noundef %4)
  br label %42

20:                                               ; preds = %15, %11
  %.sink45 = phi i32 [ 16, %15 ], [ 4, %11 ]
  %switch = phi i1 [ false, %15 ], [ true, %11 ]
  %21 = add i32 %3, %.sink45
  %22 = load i32, ptr @hf_gsm_a_bssmap_aoip_trans_port, align 4
  %23 = call ptr @proto_tree_add_item(ptr noundef %1, i32 noundef %22, ptr noundef %0, i32 noundef %21, i32 noundef 2, i32 noundef 0)
  %24 = call zeroext i16 @tvb_get_ntohs(ptr noundef %0, i32 noundef %21)
  %.sink44 = select i1 %switch, i32 2, i32 3
  %.sink43 = select i1 %switch, i32 4, i32 16
  %.sink = select i1 %switch, ptr %8, ptr %10
  store i32 %.sink44, ptr %9, align 8
  %25 = getelementptr inbounds nuw i8, ptr %9, i64 4
  store i32 %.sink43, ptr %25, align 4
  %26 = getelementptr inbounds nuw i8, ptr %9, i64 8
  store ptr %.sink, ptr %26, align 8
  %27 = getelementptr inbounds nuw i8, ptr %2, i64 80
  %28 = load ptr, ptr %27, align 8
  %29 = getelementptr inbounds nuw i8, ptr %28, i64 57
  %30 = load i16, ptr %29, align 1
  %31 = and i16 %30, 8
  %32 = icmp eq i16 %31, 0
  %33 = icmp ne i16 %24, 0
  %or.cond = select i1 %32, i1 %33, i1 false
  br i1 %or.cond, label %34, label %40

34:                                               ; preds = %20
  %35 = zext i16 %24 to i32
  %36 = getelementptr inbounds nuw i8, ptr %2, i64 20
  %37 = load i32, ptr %36, align 4
  call void @rtp_add_address(ptr noundef %2, i32 noundef 3, ptr noundef nonnull %9, i32 noundef %35, i32 noundef 0, ptr noundef nonnull @.str.738, i32 noundef %37, i32 noundef 0, ptr noundef null)
  %38 = add nuw nsw i32 %35, 1
  %39 = load i32, ptr %36, align 4
  call void @rtcp_add_address(ptr noundef %2, ptr noundef nonnull %9, i32 noundef %38, i32 noundef 0, ptr noundef nonnull @.str.738, i32 noundef %39)
  br label %40

40:                                               ; preds = %34, %20
  %41 = or disjoint i32 %.sink45, 2
  br label %42

42:                                               ; preds = %40, %18
  %.0.in = phi i32 [ %4, %18 ], [ %41, %40 ]
  %.0 = trunc i32 %.0.in to i16
  call void @llvm.lifetime.end.p0(i64 16, ptr nonnull %10) #4
  call void @llvm.lifetime.end.p0(i64 24, ptr nonnull %9) #4
  call void @llvm.lifetime.end.p0(i64 4, ptr nonnull %8) #4
  ret i16 %.0
}